target datalayout = "e-m:e-p270:32:32-p271:32:32-p272:64:64-i64:64-i128:128-f80:128-n8:16:32:64-S128"
target triple = "x86_64-pc-linux-gnu"

%struct.st__generator = type { ptr, ptr, i32 }

; Function Attrs: nounwind uwtable
define ptr @st__init_gen(ptr noundef %0) #0 {
  %2 = alloca ptr, align 8
  %3 = alloca ptr, align 8
  %4 = alloca ptr, align 8
  %5 = alloca i32, align 4
  store ptr %0, ptr %3, align 8, !tbaa !11
  call void @llvm.lifetime.start.p0(i64 8, ptr %4) #6
  %6 = call noalias ptr @malloc(i64 noundef 24) #7
  store ptr %6, ptr %4, align 8, !tbaa !66
  %7 = load ptr, ptr %4, align 8, !tbaa !66
  %8 = icmp eq ptr %7, null
  br i1 %8, label %9, label %10

9:                                                ; preds = %1
  store ptr null, ptr %2, align 8
  store i32 1, ptr %5, align 4
  br label %19

10:                                               ; preds = %1
  %11 = load ptr, ptr %3, align 8, !tbaa !11
  %12 = load ptr, ptr %4, align 8, !tbaa !66
  %13 = getelementptr inbounds nuw %struct.st__generator, ptr %12, i32 0, i32 0
  store ptr %11, ptr %13, align 8, !tbaa !68
  %14 = load ptr, ptr %4, align 8, !tbaa !66
  %15 = getelementptr inbounds nuw %struct.st__generator, ptr %14, i32 0, i32 1
  store ptr null, ptr %15, align 8, !tbaa !70
  %16 = load ptr, ptr %4, align 8, !tbaa !66
  %17 = getelementptr inbounds nuw %struct.st__generator, ptr %16, i32 0, i32 2
  store i32 0, ptr %17, align 8, !tbaa !71
  %18 = load ptr, ptr %4, align 8, !tbaa !66
  store ptr %18, ptr %2, align 8
  store i32 1, ptr %5, align 4
  br label %19

19:                                               ; preds = %10, %9
  call void @llvm.lifetime.end.p0(i64 8, ptr %4) #6
  %20 = load ptr, ptr %2, align 8
  ret ptr %20
}