; Function Attrs: mustprogress nofree nounwind willreturn memory(write, argmem: none, inaccessiblemem: readwrite) uwtable
define noalias noundef ptr @st__init_gen(ptr noundef %0) local_unnamed_addr #7 {
  %2 = tail call noalias dereferenceable_or_null(24) ptr @malloc(i64 noundef 24) #13
  %3 = icmp eq ptr %2, null
  br i1 %3, label %7, label %4

4:                                                ; preds = %1
  store ptr %0, ptr %2, align 8, !tbaa !58
  %5 = getelementptr inbounds nuw i8, ptr %2, i64 8
  store ptr null, ptr %5, align 8, !tbaa !61
  %6 = getelementptr inbounds nuw i8, ptr %2, i64 16
  store i32 0, ptr %6, align 8, !tbaa !62
  br label %7

7:                                                ; preds = %1, %4
  ret ptr %2
}